; Function Attrs: mustprogress uwtable
define i64 @_ZNK8QuantLib8BMAIndex12maturityDateERKNS_4DateE(ptr noundef nonnull align 8 dereferenceable(256) %this, ptr noundef nonnull align 8 dereferenceable(8) %valueDate) unnamed_addr #6 align 2 personality ptr @__gxx_personality_v0 {
entry:
  %retval.i = alloca %"class.QuantLib::Date", align 8
  %cal = alloca %"class.QuantLib::Calendar", align 8
  %nextWednesday = alloca %"class.QuantLib::Date", align 8
  %ref.tmp = alloca %"class.QuantLib::Date", align 8
  call void @llvm.lifetime.start.p0(i64 16, ptr nonnull %cal) #24
  %vtable = load ptr, ptr %this, align 8, !tbaa !28
  %vfn = getelementptr inbounds i8, ptr %vtable, i64 24
  %0 = load ptr, ptr %vfn, align 8
  call void %0(ptr dead_on_unwind nonnull writable sret(%"class.QuantLib::Calendar") align 8 %cal, ptr noundef nonnull align 8 dereferenceable(240) %this)
  %call = invoke i64 @_ZNK8QuantLib8Calendar7advanceERKNS_4DateEiNS_8TimeUnitENS_21BusinessDayConventionEb(ptr noundef nonnull align 8 dereferenceable(16) %cal, ptr noundef nonnull align 8 dereferenceable(8) %valueDate, i32 noundef -1, i32 noundef 0, i32 noundef 0, i1 noundef zeroext false)
          to label %invoke.cont unwind label %lpad

invoke.cont:                                      ; preds = %entry
  call void @llvm.lifetime.start.p0(i64 8, ptr nonnull %nextWednesday) #24
  call void @llvm.lifetime.start.p0(i64 8, ptr nonnull %ref.tmp) #24
  call void @llvm.lifetime.start.p0(i64 8, ptr nonnull %retval.i)
  %add.i = add nsw i64 %call, 7
  invoke void @_ZN8QuantLib4DateC1El(ptr noundef nonnull align 8 dereferenceable(8) %retval.i, i64 noundef %add.i)
          to label %invoke.cont3 unwind label %lpad2

invoke.cont3:                                     ; preds = %invoke.cont
  %1 = load i64, ptr %retval.i, align 8
  call void @llvm.lifetime.end.p0(i64 8, ptr nonnull %retval.i)
  store i64 %1, ptr %ref.tmp, align 8
  %rem.i.i = srem i64 %1, 7
  %conv.i.i = trunc nsw i64 %rem.i.i to i32
  %cmp.i.i = icmp eq i64 %rem.i.i, 0
  %cond.i.i = select i1 %cmp.i.i, i32 7, i32 %conv.i.i
  %cmp.inv.i = icmp slt i32 %cond.i.i, 4
  %..i = select i1 %cmp.inv.i, i32 -3, i32 4
  %sub5.i = sub nsw i32 %..i, %cond.i.i
  %call3.i7.i3 = invoke i64 @_ZN8QuantLib4Date7advanceERKS0_iNS_8TimeUnitE(ptr noundef nonnull align 8 dereferenceable(8) %ref.tmp, i32 noundef %sub5.i, i32 noundef 0)
          to label %invoke.cont6 unwind label %lpad2

invoke.cont6:                                     ; preds = %invoke.cont3
  store i64 %call3.i7.i3, ptr %nextWednesday, align 8
  call void @llvm.lifetime.end.p0(i64 8, ptr nonnull %ref.tmp) #24
  %call11 = invoke i64 @_ZNK8QuantLib8Calendar7advanceERKNS_4DateEiNS_8TimeUnitENS_21BusinessDayConventionEb(ptr noundef nonnull align 8 dereferenceable(16) %cal, ptr noundef nonnull align 8 dereferenceable(8) %nextWednesday, i32 noundef 1, i32 noundef 0, i32 noundef 0, i1 noundef zeroext false)
          to label %invoke.cont10 unwind label %lpad9

invoke.cont10:                                    ; preds = %invoke.cont6
  call void @llvm.lifetime.end.p0(i64 8, ptr nonnull %nextWednesday) #24
  %pn.i.i = getelementptr inbounds nuw i8, ptr %cal, i64 8
  %2 = load ptr, ptr %pn.i.i, align 8, !tbaa !44
  %cmp.not.i.i.i = icmp eq ptr %2, null
  br i1 %cmp.not.i.i.i, label %_ZN8QuantLib8CalendarD2Ev.exit, label %if.then.i.i.i

if.then.i.i.i:                                    ; preds = %invoke.cont10
  %use_count_.i.i.i.i = getelementptr inbounds nuw i8, ptr %2, i64 8
  %3 = atomicrmw sub ptr %use_count_.i.i.i.i, i32 1 acq_rel, align 4
  %cmp.i.i.i.i = icmp eq i32 %3, 1
  br i1 %cmp.i.i.i.i, label %if.then.i.i.i.i, label %_ZN8QuantLib8CalendarD2Ev.exit

if.then.i.i.i.i:                                  ; preds = %if.then.i.i.i
  %vtable.i.i.i.i = load ptr, ptr %2, align 8, !tbaa !28
  %vfn.i.i.i.i = getelementptr inbounds i8, ptr %vtable.i.i.i.i, i64 16
  %4 = load ptr, ptr %vfn.i.i.i.i, align 8
  invoke void %4(ptr noundef nonnull align 8 dereferenceable(16) %2)
          to label %.noexc.i.i.i unwind label %terminate.lpad.i.i.i

.noexc.i.i.i:                                     ; preds = %if.then.i.i.i.i
  %weak_count_.i.i.i.i.i = getelementptr inbounds nuw i8, ptr %2, i64 12
  %5 = atomicrmw sub ptr %weak_count_.i.i.i.i.i, i32 1 acq_rel, align 4
  %cmp.i.i.i.i.i = icmp eq i32 %5, 1
  br i1 %cmp.i.i.i.i.i, label %if.then.i.i.i.i.i, label %_ZN8QuantLib8CalendarD2Ev.exit

if.then.i.i.i.i.i:                                ; preds = %.noexc.i.i.i
  %vtable.i.i.i.i.i = load ptr, ptr %2, align 8, !tbaa !28
  %vfn.i.i.i.i.i = getelementptr inbounds i8, ptr %vtable.i.i.i.i.i, i64 24
  %6 = load ptr, ptr %vfn.i.i.i.i.i, align 8
  invoke void %6(ptr noundef nonnull align 8 dereferenceable(16) %2)
          to label %_ZN8QuantLib8CalendarD2Ev.exit unwind label %terminate.lpad.i.i.i

terminate.lpad.i.i.i:                             ; preds = %if.then.i.i.i.i.i, %if.then.i.i.i.i
  %7 = landingpad { ptr, i32 }
          catch ptr null
  %8 = extractvalue { ptr, i32 } %7, 0
  call void @__clang_call_terminate(ptr %8) #25
  unreachable

_ZN8QuantLib8CalendarD2Ev.exit:                   ; preds = %invoke.cont10, %if.then.i.i.i, %.noexc.i.i.i, %if.then.i.i.i.i.i
  call void @llvm.lifetime.end.p0(i64 16, ptr nonnull %cal) #24
  ret i64 %call11

lpad:                                             ; preds = %entry
  %9 = landingpad { ptr, i32 }
          cleanup
  br label %ehcleanup13

lpad2:                                            ; preds = %invoke.cont3, %invoke.cont
  %10 = landingpad { ptr, i32 }
          cleanup
  call void @llvm.lifetime.end.p0(i64 8, ptr nonnull %ref.tmp) #24
  br label %ehcleanup

lpad9:                                            ; preds = %invoke.cont6
  %11 = landingpad { ptr, i32 }
          cleanup
  br label %ehcleanup

ehcleanup:                                        ; preds = %lpad9, %lpad2
  %.pn = phi { ptr, i32 } [ %11, %lpad9 ], [ %10, %lpad2 ]
  call void @llvm.lifetime.end.p0(i64 8, ptr nonnull %nextWednesday) #24
  br label %ehcleanup13

ehcleanup13:                                      ; preds = %ehcleanup, %lpad
  %.pn.pn = phi { ptr, i32 } [ %.pn, %ehcleanup ], [ %9, %lpad ]
  call void @_ZN8QuantLib8CalendarD2Ev(ptr noundef nonnull align 8 dereferenceable(16) %cal) #24
  call void @llvm.lifetime.end.p0(i64 16, ptr nonnull %cal) #24
  resume { ptr, i32 } %.pn.pn
}